	.file	"main.c"
	.text
	.globl	fun
	.type	fun, @function
fun:
.LFB0:
	.cfi_startproc
	pushl	%ebp
	.cfi_def_cfa_offset 8
	.cfi_offset 5, -8
	movl	%esp, %ebp
	.cfi_def_cfa_register 5
	subl	$16, %esp
	movl	$1, -8(%ebp)
.L3:
	movl	-8(%ebp), %eax
	testl	%eax, %eax
	je	.L2
	movl	8(%ebp), %eax
	leal	3(%eax), %edx
	testl	%eax, %eax
	cmovs	%edx, %eax
	sarl	$2, %eax
	movl	12(%ebp), %edx
	addl	%edx, %edx
	cmpl	%edx, %eax
	setg	%al
	movzbl	%al, %eax
	movl	%eax, -4(%ebp)
.L2:
	movl	-8(%ebp), %eax
	testl	%eax, %eax
	je	.L3
	movl	-8(%ebp), %eax
	testl	%eax, %eax
	je	.L3
	movl	-4(%ebp), %eax
	leave
	.cfi_restore 5
	.cfi_def_cfa 4, 4
	ret
	.cfi_endproc
.LFE0:
	.size	fun, .-fun
	.globl	main
	.type	main, @function
main:
.LFB1:
	.cfi_startproc
	pushl	%ebp
	.cfi_def_cfa_offset 8
	.cfi_offset 5, -8
	movl	%esp, %ebp
	.cfi_def_cfa_register 5
	subl	$24, %esp
	movl	$10, 4(%esp)
	movl	$1, (%esp)
	call	fun
	movl	%eax, -4(%ebp)
	movl	$0, %eax
	leave
	.cfi_restore 5
	.cfi_def_cfa 4, 4
	ret
	.cfi_endproc
.LFE1:
	.size	main, .-main
	.ident	"GCC: (Ubuntu 4.8.4-2ubuntu1~14.04) 4.8.4"
	.section	.note.GNU-stack,"",@progbits
